target datalayout = "e-m:e-p270:32:32-p271:32:32-p272:64:64-i64:64-i128:128-f80:128-n8:16:32:64-S128"
target triple = "x86_64-unknown-linux-gnu"

%"struct.node::AssertionInfo" = type { ptr, ptr, ptr }

@_ZZN4node13SocketAddress10ToSockAddrEiPKcjP16sockaddr_storageE4args = internal constant %"struct.node::AssertionInfo" { ptr @.str, ptr @.str.1, ptr @.str.2 }, align 8

; Function Attrs: mustprogress nounwind uwtable
define dso_local noundef zeroext i1 @_ZN4node13SocketAddress10ToSockAddrEiPKcjP16sockaddr_storage(i32 noundef %family, ptr noundef %host, i32 noundef %port, ptr noundef %addr) #4 align 2 {
entry:
  %retval = alloca i1, align 1
  %family.addr = alloca i32, align 4
  %host.addr = alloca ptr, align 8
  %port.addr = alloca i32, align 4
  %addr.addr = alloca ptr, align 8
  store i32 %family, ptr %family.addr, align 4
  store ptr %host, ptr %host.addr, align 8
  store i32 %port, ptr %port.addr, align 4
  store ptr %addr, ptr %addr.addr, align 8
  %0 = load i32, ptr %family.addr, align 4
  switch i32 %0, label %sw.default [
    i32 2, label %sw.bb
    i32 10, label %sw.bb1
  ]

sw.bb:                                            ; preds = %entry
  %1 = load ptr, ptr %host.addr, align 8
  %2 = load i32, ptr %port.addr, align 4
  %3 = load ptr, ptr %addr.addr, align 8
  %call = call i32 @uv_ip4_addr(ptr noundef %1, i32 noundef %2, ptr noundef %3)
  %cmp = icmp eq i32 %call, 0
  store i1 %cmp, ptr %retval, align 1
  br label %return

sw.bb1:                                           ; preds = %entry
  %4 = load ptr, ptr %host.addr, align 8
  %5 = load i32, ptr %port.addr, align 4
  %6 = load ptr, ptr %addr.addr, align 8
  %call2 = call i32 @uv_ip6_addr(ptr noundef %4, i32 noundef %5, ptr noundef %6)
  %cmp3 = icmp eq i32 %call2, 0
  store i1 %cmp3, ptr %retval, align 1
  br label %return

sw.default:                                       ; preds = %entry
  br label %do.body

do.body:                                          ; preds = %sw.default
  call void @_ZN4node6AssertERKNS_13AssertionInfoE(ptr noundef nonnull align 8 dereferenceable(24) @_ZZN4node13SocketAddress10ToSockAddrEiPKcjP16sockaddr_storageE4args)
  call void @abort() #15
  unreachable

do.end:                                           ; No predecessors!
  br label %sw.epilog

sw.epilog:                                        ; preds = %do.end
  call void @llvm.trap()
  unreachable

return:                                           ; preds = %sw.bb1, %sw.bb
  %7 = load i1, ptr %retval, align 1
  ret i1 %7
}