; Function Attrs: mustprogress nounwind uwtable
define dso_local noundef zeroext i1 @_ZN4node13SocketAddress10ToSockAddrEiPKcjP16sockaddr_storage(i32 noundef %family, ptr noundef %host, i32 noundef %port, ptr noundef %addr) local_unnamed_addr #3 align 2 {
entry:
  switch i32 %family, label %do.body [
    i32 2, label %sw.bb
    i32 10, label %sw.bb1
  ]

sw.bb:                                            ; preds = %entry
  %call = tail call i32 @uv_ip4_addr(ptr noundef %host, i32 noundef %port, ptr noundef %addr) #21
  br label %return

sw.bb1:                                           ; preds = %entry
  %call2 = tail call i32 @uv_ip6_addr(ptr noundef %host, i32 noundef %port, ptr noundef %addr) #21
  br label %return

do.body:                                          ; preds = %entry
  tail call void @_ZN4node6AssertERKNS_13AssertionInfoE(ptr noundef nonnull align 8 dereferenceable(24) @_ZZN4node13SocketAddress10ToSockAddrEiPKcjP16sockaddr_storageE4args) #21
  tail call void @abort() #22
  unreachable

return:                                           ; preds = %sw.bb1, %sw.bb
  %retval.0.in = phi i32 [ %call2, %sw.bb1 ], [ %call, %sw.bb ]
  %retval.0 = icmp eq i32 %retval.0.in, 0
  ret i1 %retval.0
}